; Function Attrs: noreturn nounwind uwtable
define dso_local noundef i32 @main(i32 noundef %0, ptr noundef %1) local_unnamed_addr #0 {
  %3 = alloca %struct.ingraph_state, align 8
  %4 = alloca %struct.graphviz_unflatten_options_t, align 4
  call void @llvm.lifetime.start.p0(i64 40, ptr nonnull %3) #10
  call void @llvm.lifetime.start.p0(i64 12, ptr nonnull %4) #10
  store i32 0, ptr %4, align 4
  %5 = load ptr, ptr %1, align 8, !tbaa !4
  store ptr %5, ptr @cmd, align 8, !tbaa !4
  store i32 0, ptr @opterr, align 4, !tbaa !9
  %6 = getelementptr inbounds nuw i8, ptr %4, i64 8
  %7 = getelementptr inbounds nuw i8, ptr %4, i64 4
  br label %.outer

.outer:                                           ; preds = %8, %2
  %.ph = phi i8 [ 0, %2 ], [ 1, %8 ]
  %.ph73 = phi i32 [ 0, %2 ], [ %.ph76, %8 ]
  %.ph74 = phi i32 [ 0, %2 ], [ %.ph79, %8 ]
  br label %.outer75

.outer75:                                         ; preds = %.outer, %10
  %.ph76 = phi i32 [ %.ph73, %.outer ], [ %spec.select, %10 ]
  %.ph77 = phi i32 [ %.ph74, %.outer ], [ %.ph79, %10 ]
  br label %.outer78

.outer78:                                         ; preds = %.outer75, %15
  %.ph79 = phi i32 [ %.ph77, %.outer75 ], [ %spec.select24, %15 ]
  br label %8

8:                                                ; preds = %.outer78, %openFile.exit.i
  %9 = tail call i32 @getopt(i32 noundef %0, ptr noundef nonnull %1, ptr noundef nonnull @.str) #10
  switch i32 %9, label %45 [
    i32 -1, label %48
    i32 102, label %.outer
    i32 108, label %10
    i32 99, label %15
    i32 111, label %20
    i32 63, label %32
    i32 58, label %40
  ], !llvm.loop !11

10:                                               ; preds = %8
  %11 = load ptr, ptr @optarg, align 8, !tbaa !4
  %12 = tail call i64 @strtol(ptr noundef nonnull captures(none) %11, ptr noundef null, i32 noundef 10) #10
  %13 = trunc i64 %12 to i32
  %14 = icmp sgt i32 %13, 0
  %spec.select = select i1 %14, i32 %13, i32 %.ph76
  br label %.outer75, !llvm.loop !11

15:                                               ; preds = %8
  %16 = load ptr, ptr @optarg, align 8, !tbaa !4
  %17 = tail call i64 @strtol(ptr noundef nonnull captures(none) %16, ptr noundef null, i32 noundef 10) #10
  %18 = trunc i64 %17 to i32
  %19 = icmp sgt i32 %18, 0
  %spec.select24 = select i1 %19, i32 %18, i32 %.ph79
  br label %.outer78, !llvm.loop !11

20:                                               ; preds = %8
  %21 = load ptr, ptr @outFile, align 8, !tbaa !13
  %.not24.i = icmp eq ptr %21, null
  br i1 %.not24.i, label %24, label %22

22:                                               ; preds = %20
  %23 = tail call i32 @fclose(ptr noundef nonnull %21)
  br label %24

24:                                               ; preds = %22, %20
  %25 = load ptr, ptr @cmd, align 8, !tbaa !4
  %26 = load ptr, ptr @optarg, align 8, !tbaa !4
  %27 = tail call noalias ptr @fopen(ptr noundef %26, ptr noundef nonnull @.str.1)
  %28 = icmp eq ptr %27, null
  br i1 %28, label %29, label %openFile.exit.i

29:                                               ; preds = %24
  %30 = load ptr, ptr @stderr, align 8, !tbaa !13
  %31 = tail call i32 (ptr, ptr, ...) @fprintf(ptr noundef %30, ptr noundef nonnull @.str.10, ptr noundef %25, ptr noundef %26, ptr noundef nonnull @.str.9) #11
  tail call void @perror(ptr noundef %26) #12
  tail call fastcc void @graphviz_exit(i32 noundef 1) #13
  unreachable

openFile.exit.i:                                  ; preds = %24
  store ptr %27, ptr @outFile, align 8, !tbaa !13
  br label %8, !llvm.loop !11

32:                                               ; preds = %8
  %33 = load i32, ptr @optopt, align 4, !tbaa !9
  %34 = icmp eq i32 %33, 63
  br i1 %34, label %35, label %36

35:                                               ; preds = %32
  tail call fastcc void @usage(i32 noundef 0)
  unreachable

36:                                               ; preds = %32
  %37 = load ptr, ptr @stderr, align 8, !tbaa !13
  %38 = load ptr, ptr @cmd, align 8, !tbaa !4
  %39 = tail call i32 (ptr, ptr, ...) @fprintf(ptr noundef %37, ptr noundef nonnull @.str.2, ptr noundef %38, i32 noundef %33) #11
  tail call fastcc void @usage(i32 noundef -1)
  unreachable

40:                                               ; preds = %8
  %41 = load ptr, ptr @stderr, align 8, !tbaa !13
  %42 = load ptr, ptr @cmd, align 8, !tbaa !4
  %43 = load i32, ptr @optopt, align 4, !tbaa !9
  %44 = tail call i32 (ptr, ptr, ...) @fprintf(ptr noundef %41, ptr noundef nonnull @.str.3, ptr noundef %42, i32 noundef %43) #11
  tail call fastcc void @usage(i32 noundef -1)
  unreachable

45:                                               ; preds = %8
  %46 = load ptr, ptr @stderr, align 8, !tbaa !13
  %47 = tail call i32 (ptr, ptr, ...) @fprintf(ptr noundef %46, ptr noundef nonnull @.str.4, ptr noundef nonnull @.str.5, i32 noundef 92) #11
  tail call void @abort() #14
  unreachable

48:                                               ; preds = %8
  store i32 %.ph79, ptr %6, align 4
  store i32 %.ph76, ptr %7, align 4
  store i8 %.ph, ptr %4, align 4
  %49 = trunc nuw i8 %.ph to i1
  %50 = icmp slt i32 %.ph76, 1
  %or.cond = select i1 %49, i1 %50, i1 false
  br i1 %or.cond, label %51, label %55

51:                                               ; preds = %48
  %52 = load ptr, ptr @stderr, align 8, !tbaa !13
  %53 = load ptr, ptr @cmd, align 8, !tbaa !4
  %54 = tail call i32 (ptr, ptr, ...) @fprintf(ptr noundef %52, ptr noundef nonnull @.str.6, ptr noundef %53) #11
  br label %55

55:                                               ; preds = %51, %48
  %56 = load i32, ptr @optind, align 4, !tbaa !9
  %57 = load ptr, ptr @outFile, align 8, !tbaa !13
  %.not22.i = icmp eq ptr %57, null
  br i1 %.not22.i, label %58, label %scanargs.exit

58:                                               ; preds = %55
  %59 = load ptr, ptr @stdout, align 8, !tbaa !13
  store ptr %59, ptr @outFile, align 8, !tbaa !13
  br label %scanargs.exit

scanargs.exit:                                    ; preds = %55, %58
  %60 = sext i32 %56 to i64
  %61 = getelementptr inbounds ptr, ptr %1, i64 %60
  %.not23.i = icmp eq i32 %0, %56
  %..i = select i1 %.not23.i, ptr null, ptr %61
  %62 = call ptr @newIngraph(ptr noundef nonnull %3, ptr noundef %..i) #10
  %63 = call ptr @nextGraph(ptr noundef nonnull %3) #10
  %.not23 = icmp eq ptr %63, null
  br i1 %.not23, label %._crit_edge, label %.lr.ph

.lr.ph:                                           ; preds = %scanargs.exit, %.lr.ph
  %64 = phi ptr [ %67, %.lr.ph ], [ %63, %scanargs.exit ]
  call void @graphviz_unflatten(ptr noundef nonnull %64, ptr noundef nonnull %4) #10
  %65 = load ptr, ptr @outFile, align 8, !tbaa !13
  %66 = call i32 @agwrite(ptr noundef nonnull %64, ptr noundef %65) #10
  %67 = call ptr @nextGraph(ptr noundef nonnull %3) #10
  %.not = icmp eq ptr %67, null
  br i1 %.not, label %._crit_edge, label %.lr.ph, !llvm.loop !15

._crit_edge:                                      ; preds = %.lr.ph, %scanargs.exit
  call fastcc void @graphviz_exit(i32 noundef 0) #13
  unreachable
}